; Function Attrs: nounwind uwtable
define void @Abc_TruthStoreRead(ptr noundef %0, ptr noundef captures(none) %1) local_unnamed_addr #9 {
  %3 = tail call ptr @Abc_FileRead(ptr noundef %0)
  %4 = icmp eq ptr %3, null
  br i1 %4, label %68, label %.preheader

.preheader:                                       ; preds = %2
  %5 = load i8, ptr %3, align 1, !tbaa !3
  %.not17 = icmp eq i8 %5, 10
  br i1 %.not17, label %._crit_edge, label %.lr.ph

.lr.ph:                                           ; preds = %.preheader
  %6 = getelementptr inbounds nuw i8, ptr %1, i64 16
  %7 = load ptr, ptr %6, align 8, !tbaa !18
  %8 = load i32, ptr %1, align 8, !tbaa !11
  %9 = icmp slt i32 %8, 7
  %10 = add nsw i32 %8, -2
  %11 = shl nuw nsw i32 1, %10
  %12 = add nsw i32 %8, -6
  %13 = shl i32 16, %12
  %14 = select i1 %9, i32 %11, i32 %13
  %15 = icmp sgt i32 %14, 0
  %16 = zext nneg i32 %14 to i64
  br i1 %15, label %.lr.ph.split.us, label %.lr.ph.split

.lr.ph.split.us:                                  ; preds = %.lr.ph, %53
  %indvars.iv28 = phi i64 [ %indvars.iv.next29, %53 ], [ 0, %.lr.ph ]
  %17 = phi i8 [ %56, %53 ], [ %5, %.lr.ph ]
  %18 = phi ptr [ %55, %53 ], [ %3, %.lr.ph ]
  %.01418.us = phi i64 [ %indvars.iv.next26, %53 ], [ 0, %.lr.ph ]
  %indvars.iv.next29 = add nuw nsw i64 %indvars.iv28, 1
  %19 = getelementptr inbounds nuw ptr, ptr %7, i64 %indvars.iv28
  %20 = load ptr, ptr %19, align 8, !tbaa !19
  %21 = icmp eq i8 %17, 48
  br i1 %21, label %22, label %.lr.ph.preheader.i.us

22:                                               ; preds = %.lr.ph.split.us
  %23 = getelementptr inbounds nuw i8, ptr %18, i64 1
  %24 = load i8, ptr %23, align 1, !tbaa !3
  %25 = icmp eq i8 %24, 120
  %spec.select.idx.i.us = select i1 %25, i64 2, i64 0
  %spec.select.i.us = getelementptr inbounds nuw i8, ptr %18, i64 %spec.select.idx.i.us
  br label %.lr.ph.preheader.i.us

.lr.ph.preheader.i.us:                            ; preds = %22, %.lr.ph.split.us
  %.0.i.us = phi ptr [ %18, %.lr.ph.split.us ], [ %spec.select.i.us, %22 ]
  %26 = getelementptr i8, ptr %.0.i.us, i64 %16
  br label %.lr.ph.i.us

.lr.ph.i.us:                                      ; preds = %Abc_TruthReadHexDigit.exit.i.us, %.lr.ph.preheader.i.us
  %indvars.iv.i.us = phi i64 [ 0, %.lr.ph.preheader.i.us ], [ %indvars.iv.next.i.us, %Abc_TruthReadHexDigit.exit.i.us ]
  %27 = xor i64 %indvars.iv.i.us, -1
  %28 = getelementptr i8, ptr %26, i64 %27
  %29 = load i8, ptr %28, align 1, !tbaa !3
  %30 = sext i8 %29 to i32
  %31 = add i8 %29, -48
  %or.cond.i.i.us = icmp ult i8 %31, 10
  br i1 %or.cond.i.i.us, label %39, label %32

32:                                               ; preds = %.lr.ph.i.us
  %33 = add i8 %29, -65
  %or.cond5.i.i.us = icmp ult i8 %33, 6
  br i1 %or.cond5.i.i.us, label %37, label %34

34:                                               ; preds = %32
  %35 = add i8 %29, -97
  %or.cond8.i.i.us = icmp ult i8 %35, 6
  %36 = add nsw i32 %30, -87
  %spec.select.i.i.us = select i1 %or.cond8.i.i.us, i32 %36, i32 -1
  br label %Abc_TruthReadHexDigit.exit.i.us

37:                                               ; preds = %32
  %38 = add nsw i32 %30, -55
  br label %Abc_TruthReadHexDigit.exit.i.us

39:                                               ; preds = %.lr.ph.i.us
  %40 = add nsw i32 %30, -48
  br label %Abc_TruthReadHexDigit.exit.i.us

Abc_TruthReadHexDigit.exit.i.us:                  ; preds = %39, %37, %34
  %.0.i.i.us = phi i32 [ %40, %39 ], [ %38, %37 ], [ %spec.select.i.i.us, %34 ]
  %41 = sext i32 %.0.i.i.us to i64
  %42 = shl i64 %indvars.iv.i.us, 2
  %43 = and i64 %42, 60
  %44 = shl i64 %41, %43
  %45 = lshr i64 %indvars.iv.i.us, 4
  %46 = and i64 %45, 268435455
  %47 = getelementptr inbounds nuw i64, ptr %20, i64 %46
  %48 = load i64, ptr %47, align 8, !tbaa !6
  %49 = or i64 %44, %48
  store i64 %49, ptr %47, align 8, !tbaa !6
  %indvars.iv.next.i.us = add nuw nsw i64 %indvars.iv.i.us, 1
  %exitcond.not.i.us = icmp eq i64 %indvars.iv.next.i.us, %16
  br i1 %exitcond.not.i.us, label %Abc_TruthReadHex.exit.loopexit.us.preheader, label %.lr.ph.i.us, !llvm.loop !8

Abc_TruthReadHex.exit.loopexit.us.preheader:      ; preds = %Abc_TruthReadHexDigit.exit.i.us
  %sext31 = shl i64 %.01418.us, 32
  %50 = ashr exact i64 %sext31, 32
  br label %Abc_TruthReadHex.exit.loopexit.us

Abc_TruthReadHex.exit.loopexit.us:                ; preds = %Abc_TruthReadHex.exit.loopexit.us.preheader, %Abc_TruthReadHex.exit.loopexit.us
  %indvars.iv25 = phi i64 [ %50, %Abc_TruthReadHex.exit.loopexit.us.preheader ], [ %indvars.iv.next26, %Abc_TruthReadHex.exit.loopexit.us ]
  %indvars.iv.next26 = add nsw i64 %indvars.iv25, 1
  %51 = getelementptr inbounds i8, ptr %3, i64 %indvars.iv25
  %52 = load i8, ptr %51, align 1, !tbaa !3
  %.not16.us = icmp eq i8 %52, 10
  br i1 %.not16.us, label %53, label %Abc_TruthReadHex.exit.loopexit.us, !llvm.loop !27

53:                                               ; preds = %Abc_TruthReadHex.exit.loopexit.us
  %sext32 = shl i64 %indvars.iv.next26, 32
  %54 = ashr exact i64 %sext32, 32
  %55 = getelementptr inbounds i8, ptr %3, i64 %54
  %56 = load i8, ptr %55, align 1, !tbaa !3
  %.not.us = icmp eq i8 %56, 10
  br i1 %.not.us, label %._crit_edge.loopexit, label %.lr.ph.split.us, !llvm.loop !28

.lr.ph.split:                                     ; preds = %.lr.ph, %61
  %.019 = phi i32 [ %62, %61 ], [ 0, %.lr.ph ]
  %.01418 = phi i64 [ %indvars.iv.next, %61 ], [ 0, %.lr.ph ]
  %sext = shl i64 %.01418, 32
  %57 = ashr exact i64 %sext, 32
  br label %58

58:                                               ; preds = %58, %.lr.ph.split
  %indvars.iv = phi i64 [ %indvars.iv.next, %58 ], [ %57, %.lr.ph.split ]
  %indvars.iv.next = add nsw i64 %indvars.iv, 1
  %59 = getelementptr inbounds i8, ptr %3, i64 %indvars.iv
  %60 = load i8, ptr %59, align 1, !tbaa !3
  %.not16 = icmp eq i8 %60, 10
  br i1 %.not16, label %61, label %58, !llvm.loop !27

61:                                               ; preds = %58
  %62 = add nuw nsw i32 %.019, 1
  %sext30 = shl i64 %indvars.iv.next, 32
  %63 = ashr exact i64 %sext30, 32
  %64 = getelementptr inbounds i8, ptr %3, i64 %63
  %65 = load i8, ptr %64, align 1, !tbaa !3
  %.not = icmp eq i8 %65, 10
  br i1 %.not, label %._crit_edge, label %.lr.ph.split, !llvm.loop !28

._crit_edge.loopexit:                             ; preds = %53
  %66 = trunc nuw i64 %indvars.iv.next29 to i32
  br label %._crit_edge

._crit_edge:                                      ; preds = %61, %._crit_edge.loopexit, %.preheader
  %.0.lcssa = phi i32 [ 0, %.preheader ], [ %66, %._crit_edge.loopexit ], [ %62, %61 ]
  %67 = getelementptr inbounds nuw i8, ptr %1, i64 8
  store i32 %.0.lcssa, ptr %67, align 8, !tbaa !17
  tail call void @free(ptr noundef nonnull %3) #21
  br label %68

68:                                               ; preds = %2, %._crit_edge
  ret void
}